target datalayout = "e-m:e-p270:32:32-p271:32:32-p272:64:64-i64:64-i128:128-f80:128-n8:16:32:64-S128"
target triple = "x86_64-pc-linux-gnu"

%"struct.open_spiel::chess::Move" = type { %"struct.open_spiel::chess_common::Square", %"struct.open_spiel::chess_common::Square", %"struct.open_spiel::chess::Piece", i8, i32 }
%"struct.open_spiel::chess_common::Square" = type { i8, i8 }
%"struct.open_spiel::chess::Piece" = type { i8, i8 }
%"class.open_spiel::chess::ChessBoard" = type { i32, i8, i8, %"struct.std::array", i8, %"struct.open_spiel::chess_common::Square", i32, i32, [2 x %struct.anon], i64 }
%"struct.std::array" = type { [64 x %"struct.open_spiel::chess::Piece"] }
%struct.anon = type { %"class.absl::debian2::optional", %"class.absl::debian2::optional" }
%"class.absl::debian2::optional" = type { %"class.absl::debian2::optional_internal::optional_data" }
%"class.absl::debian2::optional_internal::optional_data" = type { %"class.absl::debian2::optional_internal::optional_data_base" }
%"class.absl::debian2::optional_internal::optional_data_base" = type { %"class.absl::debian2::optional_internal::optional_data_dtor_base" }
%"class.absl::debian2::optional_internal::optional_data_dtor_base" = type { i8, %union.anon.14 }
%union.anon.14 = type { %"struct.open_spiel::chess_common::Square" }
%"struct.std::array.183" = type { [64 x i8] }
%"struct.open_spiel::chess_common::Offset" = type { i8, i8 }
%class.anon.198 = type { ptr, ptr, ptr, ptr, ptr }

; Function Attrs: mustprogress nounwind uwtable
define linkonce_odr noundef nonnull align 1 dereferenceable(1) ptr @_ZNSt14__array_traitsIbLm64EE6_S_refERA64_Kbm(ptr noundef nonnull align 1 dereferenceable(64) %0, i64 noundef %1) #5 comdat align 2 {
  %3 = alloca ptr, align 8
  %4 = alloca i64, align 8
  store ptr %0, ptr %3, align 8
  store i64 %1, ptr %4, align 8
  %5 = load ptr, ptr %3, align 8
  %6 = load i64, ptr %4, align 8
  %7 = getelementptr inbounds [64 x i8], ptr %5, i64 0, i64 %6
  ret ptr %7
}

; Function Attrs: mustprogress nounwind uwtable
define linkonce_odr i16 @_ZN10open_spiel12chess_commonplERKNS0_6SquareERKNS0_6OffsetE(ptr noundef nonnull align 1 dereferenceable(2) %0, ptr noundef nonnull align 1 dereferenceable(2) %1) #5 comdat {
  %3 = alloca %"struct.open_spiel::chess_common::Square", align 1
  %4 = alloca ptr, align 8
  %5 = alloca ptr, align 8
  %6 = alloca i8, align 1
  %7 = alloca i8, align 1
  store ptr %0, ptr %4, align 8
  store ptr %1, ptr %5, align 8
  %8 = load ptr, ptr %4, align 8
  %9 = getelementptr inbounds nuw %"struct.open_spiel::chess_common::Square", ptr %8, i32 0, i32 0
  %10 = load i8, ptr %9, align 1
  %11 = sext i8 %10 to i32
  %12 = load ptr, ptr %5, align 8
  %13 = getelementptr inbounds nuw %"struct.open_spiel::chess_common::Offset", ptr %12, i32 0, i32 0
  %14 = load i8, ptr %13, align 1
  %15 = sext i8 %14 to i32
  %16 = add nsw i32 %11, %15
  %17 = trunc i32 %16 to i8
  store i8 %17, ptr %6, align 1
  %18 = load ptr, ptr %4, align 8
  %19 = getelementptr inbounds nuw %"struct.open_spiel::chess_common::Square", ptr %18, i32 0, i32 1
  %20 = load i8, ptr %19, align 1
  %21 = sext i8 %20 to i32
  %22 = load ptr, ptr %5, align 8
  %23 = getelementptr inbounds nuw %"struct.open_spiel::chess_common::Offset", ptr %22, i32 0, i32 1
  %24 = load i8, ptr %23, align 1
  %25 = sext i8 %24 to i32
  %26 = add nsw i32 %21, %25
  %27 = trunc i32 %26 to i8
  store i8 %27, ptr %7, align 1
  %28 = getelementptr inbounds nuw %"struct.open_spiel::chess_common::Square", ptr %3, i32 0, i32 0
  %29 = load i8, ptr %6, align 1
  store i8 %29, ptr %28, align 1
  %30 = getelementptr inbounds nuw %"struct.open_spiel::chess_common::Square", ptr %3, i32 0, i32 1
  %31 = load i8, ptr %7, align 1
  store i8 %31, ptr %30, align 1
  %32 = load i16, ptr %3, align 1
  ret i16 %32
}

; Function Attrs: mustprogress nounwind uwtable
define linkonce_odr noundef zeroext i1 @_ZNK10open_spiel12chess_common6SquareeqERKS1_(ptr noundef nonnull align 1 dereferenceable(2) %0, ptr noundef nonnull align 1 dereferenceable(2) %1) #5 comdat align 2 {
  %3 = alloca ptr, align 8
  %4 = alloca ptr, align 8
  store ptr %0, ptr %3, align 8
  store ptr %1, ptr %4, align 8
  %5 = load ptr, ptr %3, align 8
  %6 = getelementptr inbounds nuw %"struct.open_spiel::chess_common::Square", ptr %5, i32 0, i32 0
  %7 = load i8, ptr %6, align 1
  %8 = sext i8 %7 to i32
  %9 = load ptr, ptr %4, align 8
  %10 = getelementptr inbounds nuw %"struct.open_spiel::chess_common::Square", ptr %9, i32 0, i32 0
  %11 = load i8, ptr %10, align 1
  %12 = sext i8 %11 to i32
  %13 = icmp eq i32 %8, %12
  br i1 %13, label %14, label %23

14:                                               ; preds = %2
  %15 = getelementptr inbounds nuw %"struct.open_spiel::chess_common::Square", ptr %5, i32 0, i32 1
  %16 = load i8, ptr %15, align 1
  %17 = sext i8 %16 to i32
  %18 = load ptr, ptr %4, align 8
  %19 = getelementptr inbounds nuw %"struct.open_spiel::chess_common::Square", ptr %18, i32 0, i32 1
  %20 = load i8, ptr %19, align 1
  %21 = sext i8 %20 to i32
  %22 = icmp eq i32 %17, %21
  br label %23

23:                                               ; preds = %14, %2
  %24 = phi i1 [ false, %2 ], [ %22, %14 ]
  ret i1 %24
}

; Function Attrs: mustprogress nounwind uwtable
define linkonce_odr i16 @_ZNK10open_spiel5chess10ChessBoard8EpSquareEv(ptr noundef nonnull align 8 dereferenceable(168) %0) #5 comdat align 2 {
  %2 = alloca %"struct.open_spiel::chess_common::Square", align 1
  %3 = alloca ptr, align 8
  store ptr %0, ptr %3, align 8
  %4 = load ptr, ptr %3, align 8
  %5 = getelementptr inbounds nuw %"class.open_spiel::chess::ChessBoard", ptr %4, i32 0, i32 5
  call void @llvm.memcpy.p0.p0.i64(ptr align 1 %2, ptr align 1 %5, i64 2, i1 false)
  %6 = load i16, ptr %2, align 1
  ret i16 %6
}

; Function Attrs: mustprogress nounwind uwtable
define linkonce_odr noundef nonnull align 1 dereferenceable(1) ptr @_ZNSt5arrayIbLm64EEixEm(ptr noundef nonnull align 1 dereferenceable(64) %0, i64 noundef %1) #5 comdat align 2 {
  %3 = alloca ptr, align 8
  %4 = alloca i64, align 8
  store ptr %0, ptr %3, align 8
  store i64 %1, ptr %4, align 8
  %5 = load ptr, ptr %3, align 8
  %6 = getelementptr inbounds nuw %"struct.std::array.183", ptr %5, i32 0, i32 0
  %7 = load i64, ptr %4, align 8
  %8 = call noundef nonnull align 1 dereferenceable(1) ptr @_ZNSt14__array_traitsIbLm64EE6_S_refERA64_Kbm(ptr noundef nonnull align 1 dereferenceable(64) %6, i64 noundef %7) #3
  ret ptr %8
}

; Function Attrs: mustprogress nounwind uwtable
define linkonce_odr noundef nonnull align 1 dereferenceable(1) ptr @_ZNKSt5arrayIbLm64EEixEm(ptr noundef nonnull align 1 dereferenceable(64) %0, i64 noundef %1) #5 comdat align 2 {
  %3 = alloca ptr, align 8
  %4 = alloca i64, align 8
  store ptr %0, ptr %3, align 8
  store i64 %1, ptr %4, align 8
  %5 = load ptr, ptr %3, align 8
  %6 = getelementptr inbounds nuw %"struct.std::array.183", ptr %5, i32 0, i32 0
  %7 = load i64, ptr %4, align 8
  %8 = call noundef nonnull align 1 dereferenceable(1) ptr @_ZNSt14__array_traitsIbLm64EE6_S_refERA64_Kbm(ptr noundef nonnull align 1 dereferenceable(64) %6, i64 noundef %7) #3
  ret ptr %8
}

; Function Attrs: mustprogress nounwind uwtable
define linkonce_odr noundef zeroext i8 @_ZN10open_spiel5chess13SquareToIndexERKNS_12chess_common6SquareEi(ptr noundef nonnull align 1 dereferenceable(2) %0, i32 noundef %1) #5 comdat {
  %3 = alloca ptr, align 8
  %4 = alloca i32, align 4
  store ptr %0, ptr %3, align 8
  store i32 %1, ptr %4, align 4
  %5 = load ptr, ptr %3, align 8
  %6 = getelementptr inbounds nuw %"struct.open_spiel::chess_common::Square", ptr %5, i32 0, i32 1
  %7 = load i8, ptr %6, align 1
  %8 = sext i8 %7 to i32
  %9 = load i32, ptr %4, align 4
  %10 = mul nsw i32 %8, %9
  %11 = load ptr, ptr %3, align 8
  %12 = getelementptr inbounds nuw %"struct.open_spiel::chess_common::Square", ptr %11, i32 0, i32 0
  %13 = load i8, ptr %12, align 1
  %14 = sext i8 %13 to i32
  %15 = add nsw i32 %10, %14
  %16 = trunc i32 %15 to i8
  ret i8 %16
}

; Function Attrs: mustprogress uwtable
define internal noundef zeroext i1 @"_ZZN10open_spiel10dark_chess12_GLOBAL__N_123ComputePrivateInfoTableERKNS_5chess10ChessBoardENS2_5ColorERKSt5arrayIbLm64EEENK3$_0clERKNS2_4MoveE"(ptr noundef nonnull align 8 dereferenceable(40) %0, ptr noundef nonnull align 4 dereferenceable(12) %1) #4 align 2 {
  %3 = alloca ptr, align 8
  %4 = alloca ptr, align 8
  %5 = alloca i64, align 8
  %6 = alloca %"struct.open_spiel::chess_common::Square", align 1
  %7 = alloca i8, align 1
  %8 = alloca %"struct.open_spiel::chess_common::Square", align 1
  %9 = alloca %"struct.open_spiel::chess_common::Offset", align 1
  %10 = alloca i64, align 8
  store ptr %0, ptr %3, align 8
  store ptr %1, ptr %4, align 8
  %11 = load ptr, ptr %3, align 8
  %12 = load ptr, ptr %4, align 8
  %13 = getelementptr inbounds nuw %"struct.open_spiel::chess::Move", ptr %12, i32 0, i32 1
  %14 = getelementptr inbounds nuw %class.anon.198, ptr %11, i32 0, i32 0
  %15 = load ptr, ptr %14, align 8
  %16 = load i32, ptr %15, align 4
  %17 = call noundef zeroext i8 @_ZN10open_spiel5chess13SquareToIndexERKNS_12chess_common6SquareEi(ptr noundef nonnull align 1 dereferenceable(2) %13, i32 noundef %16)
  %18 = zext i8 %17 to i64
  store i64 %18, ptr %5, align 8
  %19 = getelementptr inbounds nuw %class.anon.198, ptr %11, i32 0, i32 1
  %20 = load ptr, ptr %19, align 8
  %21 = load i64, ptr %5, align 8
  %22 = call noundef nonnull align 1 dereferenceable(1) ptr @_ZNKSt5arrayIbLm64EEixEm(ptr noundef nonnull align 1 dereferenceable(64) %20, i64 noundef %21) #3
  %23 = load i8, ptr %22, align 1
  %24 = trunc i8 %23 to i1
  br i1 %24, label %30, label %25

25:                                               ; preds = %2
  %26 = getelementptr inbounds nuw %class.anon.198, ptr %11, i32 0, i32 2
  %27 = load ptr, ptr %26, align 8
  %28 = load i64, ptr %5, align 8
  %29 = call noundef nonnull align 1 dereferenceable(1) ptr @_ZNSt5arrayIbLm64EEixEm(ptr noundef nonnull align 1 dereferenceable(64) %27, i64 noundef %28) #3
  store i8 1, ptr %29, align 1
  br label %30

30:                                               ; preds = %25, %2
  %31 = load ptr, ptr %4, align 8
  %32 = getelementptr inbounds nuw %"struct.open_spiel::chess::Move", ptr %31, i32 0, i32 1
  %33 = getelementptr inbounds nuw %class.anon.198, ptr %11, i32 0, i32 3
  %34 = load ptr, ptr %33, align 8
  %35 = call i16 @_ZNK10open_spiel5chess10ChessBoard8EpSquareEv(ptr noundef nonnull align 8 dereferenceable(168) %34)
  store i16 %35, ptr %6, align 1
  %36 = call noundef zeroext i1 @_ZNK10open_spiel12chess_common6SquareeqERKS1_(ptr noundef nonnull align 1 dereferenceable(2) %32, ptr noundef nonnull align 1 dereferenceable(2) %6)
  br i1 %36, label %37, label %43

37:                                               ; preds = %30
  %38 = load ptr, ptr %4, align 8
  %39 = getelementptr inbounds nuw %"struct.open_spiel::chess::Move", ptr %38, i32 0, i32 2
  %40 = getelementptr inbounds nuw %"struct.open_spiel::chess::Piece", ptr %39, i32 0, i32 1
  %41 = load i8, ptr %40, align 1
  %42 = icmp eq i8 %41, 6
  br label %43

43:                                               ; preds = %37, %30
  %44 = phi i1 [ false, %30 ], [ %42, %37 ]
  br i1 %44, label %45, label %75

45:                                               ; preds = %43
  %46 = getelementptr inbounds nuw %class.anon.198, ptr %11, i32 0, i32 4
  %47 = load ptr, ptr %46, align 8
  %48 = load i8, ptr %47, align 1
  %49 = icmp eq i8 %48, 1
  %50 = select i1 %49, i32 -1, i32 1
  %51 = trunc i32 %50 to i8
  store i8 %51, ptr %7, align 1
  %52 = load ptr, ptr %4, align 8
  %53 = getelementptr inbounds nuw %"struct.open_spiel::chess::Move", ptr %52, i32 0, i32 1
  %54 = getelementptr inbounds nuw %"struct.open_spiel::chess_common::Offset", ptr %9, i32 0, i32 0
  store i8 0, ptr %54, align 1
  %55 = getelementptr inbounds nuw %"struct.open_spiel::chess_common::Offset", ptr %9, i32 0, i32 1
  %56 = load i8, ptr %7, align 1
  store i8 %56, ptr %55, align 1
  %57 = call i16 @_ZN10open_spiel12chess_commonplERKNS0_6SquareERKNS0_6OffsetE(ptr noundef nonnull align 1 dereferenceable(2) %53, ptr noundef nonnull align 1 dereferenceable(2) %9)
  store i16 %57, ptr %8, align 1
  %58 = getelementptr inbounds nuw %class.anon.198, ptr %11, i32 0, i32 0
  %59 = load ptr, ptr %58, align 8
  %60 = load i32, ptr %59, align 4
  %61 = call noundef zeroext i8 @_ZN10open_spiel5chess13SquareToIndexERKNS_12chess_common6SquareEi(ptr noundef nonnull align 1 dereferenceable(2) %8, i32 noundef %60)
  %62 = zext i8 %61 to i64
  store i64 %62, ptr %10, align 8
  %63 = getelementptr inbounds nuw %class.anon.198, ptr %11, i32 0, i32 1
  %64 = load ptr, ptr %63, align 8
  %65 = load i64, ptr %10, align 8
  %66 = call noundef nonnull align 1 dereferenceable(1) ptr @_ZNKSt5arrayIbLm64EEixEm(ptr noundef nonnull align 1 dereferenceable(64) %64, i64 noundef %65) #3
  %67 = load i8, ptr %66, align 1
  %68 = trunc i8 %67 to i1
  br i1 %68, label %74, label %69

69:                                               ; preds = %45
  %70 = getelementptr inbounds nuw %class.anon.198, ptr %11, i32 0, i32 2
  %71 = load ptr, ptr %70, align 8
  %72 = load i64, ptr %10, align 8
  %73 = call noundef nonnull align 1 dereferenceable(1) ptr @_ZNSt5arrayIbLm64EEixEm(ptr noundef nonnull align 1 dereferenceable(64) %71, i64 noundef %72) #3
  store i8 1, ptr %73, align 1
  br label %74

74:                                               ; preds = %69, %45
  br label %75

75:                                               ; preds = %74, %43
  ret i1 true
}

; Function Attrs: mustprogress nounwind uwtable
define linkonce_odr noundef ptr @_ZNKSt9_Any_data9_M_accessEv(ptr noundef nonnull align 8 dereferenceable(16) %0) #5 comdat align 2 {
  %2 = alloca ptr, align 8
  store ptr %0, ptr %2, align 8
  %3 = load ptr, ptr %2, align 8
  %4 = getelementptr inbounds [16 x i8], ptr %3, i64 0, i64 0
  ret ptr %4
}

; Function Attrs: mustprogress uwtable
define internal noundef zeroext i1 @"_ZSt13__invoke_implIbRZN10open_spiel10dark_chess12_GLOBAL__N_123ComputePrivateInfoTableERKNS0_5chess10ChessBoardENS3_5ColorERKSt5arrayIbLm64EEE3$_0JRKNS3_4MoveEEET_St14__invoke_otherOT0_DpOT1_"(ptr noundef nonnull align 8 dereferenceable(40) %0, ptr noundef nonnull align 4 dereferenceable(12) %1) #4 {
  %3 = alloca ptr, align 8
  %4 = alloca ptr, align 8
  store ptr %0, ptr %3, align 8
  store ptr %1, ptr %4, align 8
  %5 = load ptr, ptr %3, align 8
  %6 = load ptr, ptr %4, align 8
  %7 = call noundef zeroext i1 @"_ZZN10open_spiel10dark_chess12_GLOBAL__N_123ComputePrivateInfoTableERKNS_5chess10ChessBoardENS2_5ColorERKSt5arrayIbLm64EEENK3$_0clERKNS2_4MoveE"(ptr noundef nonnull align 8 dereferenceable(40) %5, ptr noundef nonnull align 4 dereferenceable(12) %6)
  ret i1 %7
}

; Function Attrs: mustprogress nounwind uwtable
define internal noundef nonnull align 8 dereferenceable(8) ptr @"_ZNKSt9_Any_data9_M_accessIPZN10open_spiel10dark_chess12_GLOBAL__N_123ComputePrivateInfoTableERKNS1_5chess10ChessBoardENS4_5ColorERKSt5arrayIbLm64EEE3$_0EERKT_v"(ptr noundef nonnull align 8 dereferenceable(16) %0) #5 align 2 {
  %2 = alloca ptr, align 8
  store ptr %0, ptr %2, align 8
  %3 = load ptr, ptr %2, align 8
  %4 = call noundef ptr @_ZNKSt9_Any_data9_M_accessEv(ptr noundef nonnull align 8 dereferenceable(16) %3) #3
  ret ptr %4
}

; Function Attrs: mustprogress uwtable
define internal noundef zeroext i1 @"_ZSt10__invoke_rIbRZN10open_spiel10dark_chess12_GLOBAL__N_123ComputePrivateInfoTableERKNS0_5chess10ChessBoardENS3_5ColorERKSt5arrayIbLm64EEE3$_0JRKNS3_4MoveEEENSt9enable_ifIX16is_invocable_r_vIT_T0_DpT1_EESI_E4typeEOSJ_DpOSK_"(ptr noundef nonnull align 8 dereferenceable(40) %0, ptr noundef nonnull align 4 dereferenceable(12) %1) #4 {
  %3 = alloca ptr, align 8
  %4 = alloca ptr, align 8
  store ptr %0, ptr %3, align 8
  store ptr %1, ptr %4, align 8
  %5 = load ptr, ptr %3, align 8
  %6 = load ptr, ptr %4, align 8
  %7 = call noundef zeroext i1 @"_ZSt13__invoke_implIbRZN10open_spiel10dark_chess12_GLOBAL__N_123ComputePrivateInfoTableERKNS0_5chess10ChessBoardENS3_5ColorERKSt5arrayIbLm64EEE3$_0JRKNS3_4MoveEEET_St14__invoke_otherOT0_DpOT1_"(ptr noundef nonnull align 8 dereferenceable(40) %5, ptr noundef nonnull align 4 dereferenceable(12) %6)
  ret i1 %7
}

; Function Attrs: mustprogress nounwind uwtable
define internal noundef ptr @"_ZNSt14_Function_base13_Base_managerIZN10open_spiel10dark_chess12_GLOBAL__N_123ComputePrivateInfoTableERKNS1_5chess10ChessBoardENS4_5ColorERKSt5arrayIbLm64EEE3$_0E14_M_get_pointerERKSt9_Any_data"(ptr noundef nonnull align 8 dereferenceable(16) %0) #5 align 2 {
  %2 = alloca ptr, align 8
  store ptr %0, ptr %2, align 8
  %3 = load ptr, ptr %2, align 8
  %4 = call noundef nonnull align 8 dereferenceable(8) ptr @"_ZNKSt9_Any_data9_M_accessIPZN10open_spiel10dark_chess12_GLOBAL__N_123ComputePrivateInfoTableERKNS1_5chess10ChessBoardENS4_5ColorERKSt5arrayIbLm64EEE3$_0EERKT_v"(ptr noundef nonnull align 8 dereferenceable(16) %3) #3
  %5 = load ptr, ptr %4, align 8
  ret ptr %5
}

; Function Attrs: mustprogress uwtable
define internal noundef zeroext i1 @"_ZNSt17_Function_handlerIFbRKN10open_spiel5chess4MoveEEZNS0_10dark_chess12_GLOBAL__N_123ComputePrivateInfoTableERKNS1_10ChessBoardENS1_5ColorERKSt5arrayIbLm64EEE3$_0E9_M_invokeERKSt9_Any_dataS4_"(ptr noundef nonnull align 8 dereferenceable(16) %0, ptr noundef nonnull align 4 dereferenceable(12) %1) #4 align 2 {
  %3 = alloca ptr, align 8
  %4 = alloca ptr, align 8
  store ptr %0, ptr %3, align 8
  store ptr %1, ptr %4, align 8
  %5 = load ptr, ptr %3, align 8
  %6 = call noundef ptr @"_ZNSt14_Function_base13_Base_managerIZN10open_spiel10dark_chess12_GLOBAL__N_123ComputePrivateInfoTableERKNS1_5chess10ChessBoardENS4_5ColorERKSt5arrayIbLm64EEE3$_0E14_M_get_pointerERKSt9_Any_data"(ptr noundef nonnull align 8 dereferenceable(16) %5) #3
  %7 = load ptr, ptr %4, align 8
  %8 = call noundef zeroext i1 @"_ZSt10__invoke_rIbRZN10open_spiel10dark_chess12_GLOBAL__N_123ComputePrivateInfoTableERKNS0_5chess10ChessBoardENS3_5ColorERKSt5arrayIbLm64EEE3$_0JRKNS3_4MoveEEENSt9enable_ifIX16is_invocable_r_vIT_T0_DpT1_EESI_E4typeEOSJ_DpOSK_"(ptr noundef nonnull align 8 dereferenceable(40) %6, ptr noundef nonnull align 4 dereferenceable(12) %7)
  ret i1 %8
}