; Function Attrs: mustprogress nofree norecurse nosync nounwind willreturn memory(readwrite, inaccessiblemem: none) uwtable
define internal noundef zeroext i1 @"_ZNSt17_Function_handlerIFbRKN10open_spiel5chess4MoveEEZNS0_10dark_chess12_GLOBAL__N_123ComputePrivateInfoTableERKNS1_10ChessBoardENS1_5ColorERKSt5arrayIbLm64EEE3$_0E9_M_invokeERKSt9_Any_dataS4_"(ptr noundef nonnull readonly align 8 captures(none) dereferenceable(16) %0, ptr noundef nonnull readonly align 4 captures(none) dereferenceable(12) %1) #23 align 2 {
  %.val = load ptr, ptr %0, align 8
  %3 = getelementptr inbounds nuw i8, ptr %1, i64 2
  %4 = load ptr, ptr %.val, align 8
  %5 = load i32, ptr %4, align 4
  %6 = getelementptr inbounds nuw i8, ptr %1, i64 3
  %7 = load i8, ptr %6, align 1
  %8 = load i8, ptr %3, align 2
  %9 = trunc i32 %5 to i8
  %10 = mul i8 %7, %9
  %11 = add i8 %10, %8
  %12 = zext i8 %11 to i64
  %13 = getelementptr inbounds nuw i8, ptr %.val, i64 8
  %14 = load ptr, ptr %13, align 8
  %15 = getelementptr inbounds nuw [64 x i8], ptr %14, i64 0, i64 %12
  %16 = load i8, ptr %15, align 1
  %17 = trunc i8 %16 to i1
  br i1 %17, label %22, label %18

18:                                               ; preds = %2
  %19 = getelementptr inbounds nuw i8, ptr %.val, i64 16
  %20 = load ptr, ptr %19, align 8
  %21 = getelementptr inbounds nuw [64 x i8], ptr %20, i64 0, i64 %12
  store i8 1, ptr %21, align 1
  %.pre.i.i.i = load i8, ptr %3, align 2
  %.pre15.i.i.i = load i8, ptr %6, align 1
  br label %22

22:                                               ; preds = %18, %2
  %23 = phi i8 [ %.pre15.i.i.i, %18 ], [ %7, %2 ]
  %24 = phi i8 [ %.pre.i.i.i, %18 ], [ %8, %2 ]
  %25 = getelementptr inbounds nuw i8, ptr %.val, i64 24
  %26 = load ptr, ptr %25, align 8
  %27 = getelementptr inbounds nuw i8, ptr %26, i64 135
  %.sroa.0.0.copyload.i.i.i.i = load i16, ptr %27, align 1
  %.sroa.013.0.extract.trunc.i.i.i = trunc i16 %.sroa.0.0.copyload.i.i.i.i to i8
  %.sroa.214.0.extract.shift.i.i.i = lshr i16 %.sroa.0.0.copyload.i.i.i.i, 8
  %.sroa.214.0.extract.trunc.i.i.i = trunc nuw i16 %.sroa.214.0.extract.shift.i.i.i to i8
  %28 = icmp eq i8 %24, %.sroa.013.0.extract.trunc.i.i.i
  %29 = icmp eq i8 %23, %.sroa.214.0.extract.trunc.i.i.i
  %30 = select i1 %28, i1 %29, i1 false
  %31 = getelementptr inbounds nuw i8, ptr %1, i64 5
  %32 = load i8, ptr %31, align 1
  %33 = icmp eq i8 %32, 6
  %or.cond.i.i.i = select i1 %30, i1 %33, i1 false
  br i1 %or.cond.i.i.i, label %34, label %"_ZSt10__invoke_rIbRZN10open_spiel10dark_chess12_GLOBAL__N_123ComputePrivateInfoTableERKNS0_5chess10ChessBoardENS3_5ColorERKSt5arrayIbLm64EEE3$_0JRKNS3_4MoveEEENSt9enable_ifIX16is_invocable_r_vIT_T0_DpT1_EESI_E4typeEOSJ_DpOSK_.exit"

34:                                               ; preds = %22
  %35 = getelementptr inbounds nuw i8, ptr %.val, i64 32
  %36 = load ptr, ptr %35, align 8
  %37 = load i8, ptr %36, align 1
  %38 = icmp eq i8 %37, 1
  %39 = select i1 %38, i8 -1, i8 1
  %40 = add i8 %39, %23
  %41 = load ptr, ptr %.val, align 8
  %42 = load i32, ptr %41, align 4
  %43 = trunc i32 %42 to i8
  %44 = mul i8 %40, %43
  %45 = add i8 %44, %24
  %46 = zext i8 %45 to i64
  %47 = load ptr, ptr %13, align 8
  %48 = getelementptr inbounds nuw [64 x i8], ptr %47, i64 0, i64 %46
  %49 = load i8, ptr %48, align 1
  %50 = trunc i8 %49 to i1
  br i1 %50, label %"_ZSt10__invoke_rIbRZN10open_spiel10dark_chess12_GLOBAL__N_123ComputePrivateInfoTableERKNS0_5chess10ChessBoardENS3_5ColorERKSt5arrayIbLm64EEE3$_0JRKNS3_4MoveEEENSt9enable_ifIX16is_invocable_r_vIT_T0_DpT1_EESI_E4typeEOSJ_DpOSK_.exit", label %51

51:                                               ; preds = %34
  %52 = getelementptr inbounds nuw i8, ptr %.val, i64 16
  %53 = load ptr, ptr %52, align 8
  %54 = getelementptr inbounds nuw [64 x i8], ptr %53, i64 0, i64 %46
  store i8 1, ptr %54, align 1
  br label %"_ZSt10__invoke_rIbRZN10open_spiel10dark_chess12_GLOBAL__N_123ComputePrivateInfoTableERKNS0_5chess10ChessBoardENS3_5ColorERKSt5arrayIbLm64EEE3$_0JRKNS3_4MoveEEENSt9enable_ifIX16is_invocable_r_vIT_T0_DpT1_EESI_E4typeEOSJ_DpOSK_.exit"

"_ZSt10__invoke_rIbRZN10open_spiel10dark_chess12_GLOBAL__N_123ComputePrivateInfoTableERKNS0_5chess10ChessBoardENS3_5ColorERKSt5arrayIbLm64EEE3$_0JRKNS3_4MoveEEENSt9enable_ifIX16is_invocable_r_vIT_T0_DpT1_EESI_E4typeEOSJ_DpOSK_.exit": ; preds = %22, %34, %51
  ret i1 true
}